; Function Attrs: nounwind sspstrong uwtable
define internal range(i64 5, 4) i64 @strscan_get_string(i64 noundef %0) #0 {
  %2 = tail call ptr @rb_check_typeddata(i64 noundef %0, ptr noundef nonnull @strscanner_type) #12
  %3 = getelementptr inbounds nuw i8, ptr %2, i64 8
  %4 = load i64, ptr %3, align 8, !tbaa !23
  %5 = icmp eq i64 %4, 4
  br i1 %5, label %6, label %8

6:                                                ; preds = %1
  %7 = load i64, ptr @rb_eArgError, align 8, !tbaa !10
  tail call void (i64, ptr, ...) @rb_raise(i64 noundef %7, ptr noundef nonnull @.str.66) #14
  unreachable

8:                                                ; preds = %1
  ret i64 %4
}